target datalayout = "e-m:e-p270:32:32-p271:32:32-p272:64:64-i64:64-i128:128-f80:128-n8:16:32:64-S128"
target triple = "x86_64-pc-linux-gnu"

%struct.expert_field = type { i32, i32 }

@ett_pcep_obj_explicit_route = internal global i32 0, align 4
@ei_pcep_subobject_bad_length = internal global %struct.expert_field zeroinitializer, align 4
@ei_pcep_non_defined_subobject = internal global %struct.expert_field zeroinitializer, align 4
@.str.1154 = private unnamed_addr constant [27 x i8] c"Non defined subobject (%d)\00", align 1
@.str.1382 = private unnamed_addr constant [55 x i8] c"Bad PATH-KEY object: subobject goes past end of object\00", align 1
@.str.1383 = private unnamed_addr constant [45 x i8] c"Bad PATH-KEY object: subobject length %u < 2\00", align 1
@.str.1384 = private unnamed_addr constant [63 x i8] c"Bad PATH-KEY object: subobject length %u > remaining length %u\00", align 1

; Function Attrs: null_pointer_is_valid sspstrong uwtable
define internal void @dissect_pcep_path_key_obj(ptr noundef %0, ptr noundef %1, ptr noundef %2, i32 noundef %3, i32 noundef %4, i32 noundef %5, i32 noundef %6) #0 {
  %8 = alloca ptr, align 8
  %9 = alloca ptr, align 8
  %10 = alloca ptr, align 8
  %11 = alloca i32, align 4
  %12 = alloca i32, align 4
  %13 = alloca i32, align 4
  %14 = alloca i32, align 4
  %15 = alloca i8, align 1
  %16 = alloca i8, align 1
  %17 = alloca i32, align 4
  %18 = alloca i32, align 4
  store ptr %0, ptr %8, align 8
  store ptr %1, ptr %9, align 8
  store ptr %2, ptr %10, align 8
  store i32 %3, ptr %11, align 4
  store i32 %4, ptr %12, align 4
  store i32 %5, ptr %13, align 4
  store i32 %6, ptr %14, align 4
  call void @llvm.lifetime.start.p0(i64 1, ptr %15) #4
  call void @llvm.lifetime.start.p0(i64 1, ptr %16) #4
  call void @llvm.lifetime.start.p0(i64 4, ptr %17) #4
  call void @llvm.lifetime.start.p0(i64 4, ptr %18) #4
  %19 = load i32, ptr %12, align 4
  %20 = sub i32 %19, 4
  store i32 %20, ptr %18, align 4
  br label %21

21:                                               ; preds = %86, %7
  %22 = load i32, ptr %18, align 4
  %23 = icmp ne i32 %22, 0
  br i1 %23, label %24, label %95

24:                                               ; preds = %21
  %25 = load i32, ptr %18, align 4
  %26 = icmp ult i32 %25, 2
  br i1 %26, label %27, label %31

27:                                               ; preds = %24
  %28 = load ptr, ptr %9, align 8
  %29 = load ptr, ptr %8, align 8
  %30 = call ptr (ptr, ptr, ptr, ptr, ...) @expert_add_info_format(ptr noundef %28, ptr noundef %29, ptr noundef @ei_pcep_subobject_bad_length, ptr noundef @.str.1382)
  br label %95

31:                                               ; preds = %24
  %32 = load ptr, ptr %10, align 8
  %33 = load i32, ptr %11, align 4
  %34 = call zeroext i8 @tvb_get_uint8(ptr noundef %32, i32 noundef %33)
  store i8 %34, ptr %15, align 1
  %35 = load ptr, ptr %10, align 8
  %36 = load i32, ptr %11, align 4
  %37 = add i32 %36, 1
  %38 = call zeroext i8 @tvb_get_uint8(ptr noundef %35, i32 noundef %37)
  store i8 %38, ptr %16, align 1
  %39 = load i8, ptr %16, align 1
  %40 = zext i8 %39 to i32
  %41 = icmp slt i32 %40, 2
  br i1 %41, label %42, label %48

42:                                               ; preds = %31
  %43 = load ptr, ptr %9, align 8
  %44 = load ptr, ptr %8, align 8
  %45 = load i8, ptr %16, align 1
  %46 = zext i8 %45 to i32
  %47 = call ptr (ptr, ptr, ptr, ptr, ...) @expert_add_info_format(ptr noundef %43, ptr noundef %44, ptr noundef @ei_pcep_subobject_bad_length, ptr noundef @.str.1383, i32 noundef %46)
  br label %95

48:                                               ; preds = %31
  %49 = load i8, ptr %15, align 1
  %50 = zext i8 %49 to i32
  %51 = and i32 %50, 127
  store i32 %51, ptr %17, align 4
  %52 = load i32, ptr %18, align 4
  %53 = load i8, ptr %16, align 1
  %54 = zext i8 %53 to i32
  %55 = icmp ult i32 %52, %54
  br i1 %55, label %56, label %67

56:                                               ; preds = %48
  %57 = load ptr, ptr %8, align 8
  %58 = load ptr, ptr %9, align 8
  %59 = load ptr, ptr %10, align 8
  %60 = load i32, ptr %11, align 4
  %61 = load i8, ptr %16, align 1
  %62 = zext i8 %61 to i32
  %63 = load i8, ptr %16, align 1
  %64 = zext i8 %63 to i32
  %65 = load i32, ptr %18, align 4
  %66 = call ptr (ptr, ptr, ptr, ptr, i32, i32, ptr, ...) @proto_tree_add_expert_format(ptr noundef %57, ptr noundef %58, ptr noundef @ei_pcep_subobject_bad_length, ptr noundef %59, i32 noundef %60, i32 noundef %62, ptr noundef @.str.1384, i32 noundef %64, i32 noundef %65)
  br label %95

67:                                               ; preds = %48
  %68 = load i32, ptr %17, align 4
  switch i32 %68, label %77 [
    i32 64, label %69
  ]

69:                                               ; preds = %67
  %70 = load ptr, ptr %8, align 8
  %71 = load ptr, ptr %9, align 8
  %72 = load ptr, ptr %10, align 8
  %73 = load i32, ptr %11, align 4
  %74 = load i32, ptr @ett_pcep_obj_explicit_route, align 4
  %75 = load i8, ptr %16, align 1
  %76 = zext i8 %75 to i32
  call void @dissect_subobj_pksv4(ptr noundef %70, ptr noundef %71, ptr noundef %72, i32 noundef %73, i32 noundef %74, i32 noundef %76)
  br label %86

77:                                               ; preds = %67
  %78 = load ptr, ptr %8, align 8
  %79 = load ptr, ptr %9, align 8
  %80 = load ptr, ptr %10, align 8
  %81 = load i32, ptr %11, align 4
  %82 = load i8, ptr %16, align 1
  %83 = zext i8 %82 to i32
  %84 = load i32, ptr %17, align 4
  %85 = call ptr (ptr, ptr, ptr, ptr, i32, i32, ptr, ...) @proto_tree_add_expert_format(ptr noundef %78, ptr noundef %79, ptr noundef @ei_pcep_non_defined_subobject, ptr noundef %80, i32 noundef %81, i32 noundef %83, ptr noundef @.str.1154, i32 noundef %84)
  br label %86

86:                                               ; preds = %77, %69
  %87 = load i8, ptr %16, align 1
  %88 = zext i8 %87 to i32
  %89 = load i32, ptr %11, align 4
  %90 = add i32 %89, %88
  store i32 %90, ptr %11, align 4
  %91 = load i8, ptr %16, align 1
  %92 = zext i8 %91 to i32
  %93 = load i32, ptr %18, align 4
  %94 = sub i32 %93, %92
  store i32 %94, ptr %18, align 4
  br label %21, !llvm.loop !14

95:                                               ; preds = %56, %42, %27, %21
  call void @llvm.lifetime.end.p0(i64 4, ptr %18) #4
  call void @llvm.lifetime.end.p0(i64 4, ptr %17) #4
  call void @llvm.lifetime.end.p0(i64 1, ptr %16) #4
  call void @llvm.lifetime.end.p0(i64 1, ptr %15) #4
  ret void
}