; Function Attrs: null_pointer_is_valid sspstrong uwtable
define internal void @dissect_pcep_path_key_obj(ptr noundef %0, ptr noundef %1, ptr noundef %2, i32 noundef %3, i32 noundef %4, i32 %5, i32 %6) #0 {
  %8 = add i32 %4, -4
  br label %9

9:                                                ; preds = %31, %7
  %.038 = phi i32 [ %3, %7 ], [ %32, %31 ]
  %.0 = phi i32 [ %8, %7 ], [ %33, %31 ]
  switch i32 %.0, label %12 [
    i32 0, label %.loopexit
    i32 1, label %10
  ]

10:                                               ; preds = %9
  %11 = tail call ptr (ptr, ptr, ptr, ptr, ...) @expert_add_info_format(ptr noundef %1, ptr noundef %0, ptr noundef nonnull @ei_pcep_subobject_bad_length, ptr noundef nonnull @.str.1382)
  br label %.loopexit

12:                                               ; preds = %9
  %13 = tail call zeroext i8 @tvb_get_uint8(ptr noundef %2, i32 noundef %.038)
  %14 = add i32 %.038, 1
  %15 = tail call zeroext i8 @tvb_get_uint8(ptr noundef %2, i32 noundef %14)
  %16 = zext i8 %15 to i32
  %17 = icmp ult i8 %15, 2
  br i1 %17, label %18, label %20

18:                                               ; preds = %12
  %19 = tail call ptr (ptr, ptr, ptr, ptr, ...) @expert_add_info_format(ptr noundef %1, ptr noundef %0, ptr noundef nonnull @ei_pcep_subobject_bad_length, ptr noundef nonnull @.str.1383, i32 noundef %16)
  br label %.loopexit

20:                                               ; preds = %12
  %21 = and i8 %13, 127
  %22 = zext nneg i8 %21 to i32
  %23 = icmp ult i32 %.0, %16
  br i1 %23, label %24, label %26

24:                                               ; preds = %20
  %25 = tail call ptr (ptr, ptr, ptr, ptr, i32, i32, ptr, ...) @proto_tree_add_expert_format(ptr noundef %0, ptr noundef %1, ptr noundef nonnull @ei_pcep_subobject_bad_length, ptr noundef %2, i32 noundef %.038, i32 noundef %16, ptr noundef nonnull @.str.1384, i32 noundef %16, i32 noundef %.0)
  br label %.loopexit

26:                                               ; preds = %20
  %cond = icmp eq i8 %21, 64
  br i1 %cond, label %27, label %29

27:                                               ; preds = %26
  %28 = load i32, ptr @ett_pcep_obj_explicit_route, align 4
  tail call fastcc void @dissect_subobj_pksv4(ptr noundef %0, ptr noundef %1, ptr noundef %2, i32 noundef %.038, i32 noundef %28, i32 noundef %16)
  br label %31

29:                                               ; preds = %26
  %30 = tail call ptr (ptr, ptr, ptr, ptr, i32, i32, ptr, ...) @proto_tree_add_expert_format(ptr noundef %0, ptr noundef %1, ptr noundef nonnull @ei_pcep_non_defined_subobject, ptr noundef %2, i32 noundef %.038, i32 noundef %16, ptr noundef nonnull @.str.1154, i32 noundef %22)
  br label %31

31:                                               ; preds = %29, %27
  %32 = add i32 %.038, %16
  %33 = sub i32 %.0, %16
  br label %9, !llvm.loop !15

.loopexit:                                        ; preds = %9, %24, %18, %10
  ret void
}